target datalayout = "e-m:e-p270:32:32-p271:32:32-p272:64:64-i64:64-i128:128-f80:128-n8:16:32:64-S128"
target triple = "x86_64-pc-linux-gnu"

%struct.RelationData = type { %struct.RelFileLocator, ptr, i32, i32, i8, i8, i8, i8, i8, i32, i32, i32, i32, ptr, ptr, i32, %struct.LockInfoData, ptr, ptr, ptr, ptr, ptr, i8, ptr, ptr, ptr, ptr, ptr, ptr, i32, ptr, i8, ptr, ptr, i32, i8, i32, ptr, i8, ptr, ptr, ptr, ptr, ptr, ptr, ptr, i32, ptr, ptr, ptr, ptr, ptr, ptr, ptr, ptr, ptr, ptr, ptr, ptr, ptr, ptr, ptr, ptr, ptr, ptr, ptr, i32, i8, ptr }
%struct.RelFileLocator = type { i32, i32, i32 }
%struct.LockInfoData = type { %struct.LockRelId }
%struct.LockRelId = type { i32, i32 }
%struct.FormData_pg_class = type { i32, %struct.nameData, i32, i32, i32, i32, i32, i32, i32, i32, float, i32, i32, i8, i8, i8, i8, i16, i16, i8, i8, i8, i8, i8, i8, i8, i8, i32, i32, i32 }
%struct.nameData = type { [64 x i8] }
%struct.XactLockTableWaitInfo = type { i32, ptr, ptr }
%struct.ItemPointerData = type { %struct.BlockIdData, i16 }
%struct.BlockIdData = type { i16, i16 }

@.str.14 = private unnamed_addr constant [46 x i8] c"while updating tuple (%u,%u) in relation \22%s\22\00", align 1
@.str.15 = private unnamed_addr constant [46 x i8] c"while deleting tuple (%u,%u) in relation \22%s\22\00", align 1
@.str.16 = private unnamed_addr constant [45 x i8] c"while locking tuple (%u,%u) in relation \22%s\22\00", align 1
@.str.17 = private unnamed_addr constant [64 x i8] c"while locking updated version (%u,%u) of tuple in relation \22%s\22\00", align 1
@.str.18 = private unnamed_addr constant [53 x i8] c"while inserting index tuple (%u,%u) in relation \22%s\22\00", align 1
@.str.19 = private unnamed_addr constant [60 x i8] c"while checking uniqueness of tuple (%u,%u) in relation \22%s\22\00", align 1
@.str.20 = private unnamed_addr constant [56 x i8] c"while rechecking updated tuple (%u,%u) in relation \22%s\22\00", align 1
@.str.21 = private unnamed_addr constant [70 x i8] c"while checking exclusion constraint on tuple (%u,%u) in relation \22%s\22\00", align 1

; Function Attrs: inlinehint nounwind uwtable
define internal i32 @BlockIdGetBlockNumber(ptr noundef %0) #2 {
  %2 = alloca ptr, align 8
  store ptr %0, ptr %2, align 8
  %3 = load ptr, ptr %2, align 8
  %4 = getelementptr inbounds nuw %struct.BlockIdData, ptr %3, i32 0, i32 0
  %5 = load i16, ptr %4, align 2
  %6 = zext i16 %5 to i32
  %7 = shl i32 %6, 16
  %8 = load ptr, ptr %2, align 8
  %9 = getelementptr inbounds nuw %struct.BlockIdData, ptr %8, i32 0, i32 1
  %10 = load i16, ptr %9, align 2
  %11 = zext i16 %10 to i32
  %12 = or i32 %7, %11
  ret i32 %12
}

; Function Attrs: inlinehint nounwind uwtable
define internal zeroext i16 @ItemPointerGetOffsetNumberNoCheck(ptr noundef %0) #2 {
  %2 = alloca ptr, align 8
  store ptr %0, ptr %2, align 8
  %3 = load ptr, ptr %2, align 8
  %4 = getelementptr inbounds nuw %struct.ItemPointerData, ptr %3, i32 0, i32 1
  %5 = load i16, ptr %4, align 2
  ret i16 %5
}

; Function Attrs: inlinehint nounwind uwtable
define internal i32 @ItemPointerGetBlockNumberNoCheck(ptr noundef %0) #2 {
  %2 = alloca ptr, align 8
  store ptr %0, ptr %2, align 8
  %3 = load ptr, ptr %2, align 8
  %4 = getelementptr inbounds nuw %struct.ItemPointerData, ptr %3, i32 0, i32 0
  %5 = call i32 @BlockIdGetBlockNumber(ptr noundef %4)
  ret i32 %5
}

; Function Attrs: inlinehint nounwind uwtable
define internal zeroext i16 @ItemPointerGetOffsetNumber(ptr noundef %0) #2 {
  %2 = alloca ptr, align 8
  store ptr %0, ptr %2, align 8
  %3 = load ptr, ptr %2, align 8
  %4 = call zeroext i16 @ItemPointerGetOffsetNumberNoCheck(ptr noundef %3)
  ret i16 %4
}

; Function Attrs: inlinehint nounwind uwtable
define internal i32 @ItemPointerGetBlockNumber(ptr noundef %0) #2 {
  %2 = alloca ptr, align 8
  store ptr %0, ptr %2, align 8
  %3 = load ptr, ptr %2, align 8
  %4 = call i32 @ItemPointerGetBlockNumberNoCheck(ptr noundef %3)
  ret i32 %4
}

; Function Attrs: inlinehint nounwind uwtable
define internal zeroext i1 @ItemPointerIsValid(ptr noundef %0) #2 {
  %2 = alloca ptr, align 8
  store ptr %0, ptr %2, align 8
  %3 = load ptr, ptr %2, align 8
  %4 = icmp ne ptr %3, null
  br i1 %4, label %5, label %11

5:                                                ; preds = %1
  %6 = load ptr, ptr %2, align 8
  %7 = getelementptr inbounds nuw %struct.ItemPointerData, ptr %6, i32 0, i32 1
  %8 = load i16, ptr %7, align 2
  %9 = zext i16 %8 to i32
  %10 = icmp ne i32 %9, 0
  br label %11

11:                                               ; preds = %5, %1
  %12 = phi i1 [ false, %1 ], [ %10, %5 ]
  ret i1 %12
}

; Function Attrs: nounwind uwtable
define internal void @XactLockTableWaitErrorCb(ptr noundef %0) #0 {
  %2 = alloca ptr, align 8
  %3 = alloca ptr, align 8
  %4 = alloca ptr, align 8
  %5 = alloca i32, align 4
  store ptr %0, ptr %2, align 8
  call void @llvm.lifetime.start.p0(i64 8, ptr %3) #6
  %6 = load ptr, ptr %2, align 8
  store ptr %6, ptr %3, align 8
  %7 = load ptr, ptr %3, align 8
  %8 = getelementptr inbounds nuw %struct.XactLockTableWaitInfo, ptr %7, i32 0, i32 0
  %9 = load i32, ptr %8, align 8
  %10 = icmp ne i32 %9, 0
  br i1 %10, label %11, label %58

11:                                               ; preds = %1
  %12 = load ptr, ptr %3, align 8
  %13 = getelementptr inbounds nuw %struct.XactLockTableWaitInfo, ptr %12, i32 0, i32 2
  %14 = load ptr, ptr %13, align 8
  %15 = call zeroext i1 @ItemPointerIsValid(ptr noundef %14)
  br i1 %15, label %16, label %58

16:                                               ; preds = %11
  %17 = load ptr, ptr %3, align 8
  %18 = getelementptr inbounds nuw %struct.XactLockTableWaitInfo, ptr %17, i32 0, i32 1
  %19 = load ptr, ptr %18, align 8
  %20 = icmp ne ptr %19, null
  br i1 %20, label %21, label %58

21:                                               ; preds = %16
  call void @llvm.lifetime.start.p0(i64 8, ptr %4) #6
  %22 = load ptr, ptr %3, align 8
  %23 = getelementptr inbounds nuw %struct.XactLockTableWaitInfo, ptr %22, i32 0, i32 0
  %24 = load i32, ptr %23, align 8
  switch i32 %24, label %33 [
    i32 1, label %25
    i32 2, label %26
    i32 3, label %27
    i32 4, label %28
    i32 5, label %29
    i32 6, label %30
    i32 7, label %31
    i32 8, label %32
  ]

25:                                               ; preds = %21
  store ptr @.str.14, ptr %4, align 8
  br label %34

26:                                               ; preds = %21
  store ptr @.str.15, ptr %4, align 8
  br label %34

27:                                               ; preds = %21
  store ptr @.str.16, ptr %4, align 8
  br label %34

28:                                               ; preds = %21
  store ptr @.str.17, ptr %4, align 8
  br label %34

29:                                               ; preds = %21
  store ptr @.str.18, ptr %4, align 8
  br label %34

30:                                               ; preds = %21
  store ptr @.str.19, ptr %4, align 8
  br label %34

31:                                               ; preds = %21
  store ptr @.str.20, ptr %4, align 8
  br label %34

32:                                               ; preds = %21
  store ptr @.str.21, ptr %4, align 8
  br label %34

33:                                               ; preds = %21
  store i32 1, ptr %5, align 4
  br label %55

34:                                               ; preds = %32, %31, %30, %29, %28, %27, %26, %25
  %35 = call i32 @set_errcontext_domain(ptr noundef null)
  %36 = load ptr, ptr %4, align 8
  %37 = load ptr, ptr %3, align 8
  %38 = getelementptr inbounds nuw %struct.XactLockTableWaitInfo, ptr %37, i32 0, i32 2
  %39 = load ptr, ptr %38, align 8
  %40 = call i32 @ItemPointerGetBlockNumber(ptr noundef %39)
  %41 = load ptr, ptr %3, align 8
  %42 = getelementptr inbounds nuw %struct.XactLockTableWaitInfo, ptr %41, i32 0, i32 2
  %43 = load ptr, ptr %42, align 8
  %44 = call zeroext i16 @ItemPointerGetOffsetNumber(ptr noundef %43)
  %45 = zext i16 %44 to i32
  %46 = load ptr, ptr %3, align 8
  %47 = getelementptr inbounds nuw %struct.XactLockTableWaitInfo, ptr %46, i32 0, i32 1
  %48 = load ptr, ptr %47, align 8
  %49 = getelementptr inbounds nuw %struct.RelationData, ptr %48, i32 0, i32 13
  %50 = load ptr, ptr %49, align 8
  %51 = getelementptr inbounds nuw %struct.FormData_pg_class, ptr %50, i32 0, i32 1
  %52 = getelementptr inbounds nuw %struct.nameData, ptr %51, i32 0, i32 0
  %53 = getelementptr inbounds [64 x i8], ptr %52, i64 0, i64 0
  %54 = call i32 (ptr, ...) @errcontext_msg(ptr noundef %36, i32 noundef %40, i32 noundef %45, ptr noundef %53)
  store i32 0, ptr %5, align 4
  br label %55

55:                                               ; preds = %34, %33
  call void @llvm.lifetime.end.p0(i64 8, ptr %4) #6
  %56 = load i32, ptr %5, align 4
  switch i32 %56, label %59 [
    i32 0, label %57
  ]

57:                                               ; preds = %55
  br label %58

58:                                               ; preds = %57, %16, %11, %1
  store i32 0, ptr %5, align 4
  br label %59

59:                                               ; preds = %58, %55
  call void @llvm.lifetime.end.p0(i64 8, ptr %3) #6
  %60 = load i32, ptr %5, align 4
  switch i32 %60, label %62 [
    i32 0, label %61
    i32 1, label %61
  ]

61:                                               ; preds = %59, %59
  ret void

62:                                               ; preds = %59
  unreachable
}