; Function Attrs: nounwind uwtable
define internal void @XactLockTableWaitErrorCb(ptr noundef readonly captures(none) %0) #1 {
  %2 = load i32, ptr %0, align 8
  %.not = icmp eq i32 %2, 0
  br i1 %.not, label %ItemPointerIsValid.exit.thread, label %3

3:                                                ; preds = %1
  %4 = getelementptr inbounds nuw i8, ptr %0, i64 16
  %5 = load ptr, ptr %4, align 8
  %.not.i = icmp eq ptr %5, null
  br i1 %.not.i, label %ItemPointerIsValid.exit.thread, label %ItemPointerIsValid.exit

ItemPointerIsValid.exit:                          ; preds = %3
  %6 = getelementptr inbounds nuw i8, ptr %5, i64 4
  %7 = load i16, ptr %6, align 2
  %.not13 = icmp eq i16 %7, 0
  br i1 %.not13, label %ItemPointerIsValid.exit.thread, label %8

8:                                                ; preds = %ItemPointerIsValid.exit
  %9 = getelementptr inbounds nuw i8, ptr %0, i64 8
  %10 = load ptr, ptr %9, align 8
  %.not10 = icmp ne ptr %10, null
  %11 = icmp ult i32 %2, 9
  %or.cond = and i1 %.not10, %11
  br i1 %or.cond, label %switch.lookup, label %ItemPointerIsValid.exit.thread

switch.lookup:                                    ; preds = %8
  %switch.tableidx = add i32 %2, -1
  %12 = sext i32 %switch.tableidx to i64
  %switch.gep = getelementptr inbounds [8 x ptr], ptr @switch.table.XactLockTableWaitErrorCb, i64 0, i64 %12
  %switch.load = load ptr, ptr %switch.gep, align 8
  %13 = tail call i32 @set_errcontext_domain(ptr noundef null) #8
  %14 = load ptr, ptr %4, align 8
  %.val = load i16, ptr %14, align 2
  %15 = getelementptr i8, ptr %14, i64 2
  %.val11 = load i16, ptr %15, align 2
  %16 = zext i16 %.val to i32
  %17 = shl nuw i32 %16, 16
  %18 = zext i16 %.val11 to i32
  %19 = or disjoint i32 %17, %18
  %20 = getelementptr i8, ptr %14, i64 4
  %.val12 = load i16, ptr %20, align 2
  %21 = zext i16 %.val12 to i32
  %22 = load ptr, ptr %9, align 8
  %23 = getelementptr inbounds nuw i8, ptr %22, i64 56
  %24 = load ptr, ptr %23, align 8
  %25 = getelementptr inbounds nuw i8, ptr %24, i64 4
  %26 = tail call i32 (ptr, ...) @errcontext_msg(ptr noundef nonnull %switch.load, i32 noundef %19, i32 noundef %21, ptr noundef nonnull %25) #8
  br label %ItemPointerIsValid.exit.thread

ItemPointerIsValid.exit.thread:                   ; preds = %3, %1, %ItemPointerIsValid.exit, %8, %switch.lookup
  ret void
}